target datalayout = "e-m:e-p270:32:32-p271:32:32-p272:64:64-i64:64-i128:128-f80:128-n8:16:32:64-S128"
target triple = "x86_64-pc-linux-gnu"

%"class.std::unique_ptr.2" = type { %"struct.std::__uniq_ptr_data.3" }
%"struct.std::__uniq_ptr_data.3" = type { %"class.std::__uniq_ptr_impl.4" }
%"class.std::__uniq_ptr_impl.4" = type { %"class.std::tuple.5" }
%"class.std::tuple.5" = type { %"struct.std::_Tuple_impl.6" }
%"struct.std::_Tuple_impl.6" = type { %"struct.std::_Head_base.9" }
%"struct.std::_Head_base.9" = type { ptr }
%"class.std::unique_ptr.10" = type { %"struct.std::__uniq_ptr_data.11" }
%"struct.std::__uniq_ptr_data.11" = type { %"class.std::__uniq_ptr_impl.12" }
%"class.std::__uniq_ptr_impl.12" = type { %"class.std::tuple.13" }
%"class.std::tuple.13" = type { %"struct.std::_Tuple_impl.14" }
%"struct.std::_Tuple_impl.14" = type { %"struct.std::_Head_base.17" }
%"struct.std::_Head_base.17" = type { ptr }
%"class.std::vector" = type { %"struct.std::_Vector_base" }
%"struct.std::_Vector_base" = type { %"struct.std::_Vector_base<unsigned char, std::allocator<unsigned char>>::_Vector_impl" }
%"struct.std::_Vector_base<unsigned char, std::allocator<unsigned char>>::_Vector_impl" = type { %"struct.std::_Vector_base<unsigned char, std::allocator<unsigned char>>::_Vector_impl_data" }
%"struct.std::_Vector_base<unsigned char, std::allocator<unsigned char>>::_Vector_impl_data" = type { ptr, ptr, ptr }
%struct.TestState = type <{ ptr, %struct.timeval, %struct.timeval, %"class.std::unique_ptr.10", i8, [7 x i8], %"class.std::unique_ptr.2", %"class.std::unique_ptr.2", i8, i8, [6 x i8], %"class.std::unique_ptr.10", %"class.std::vector", i32, i8, [3 x i8] }>
%struct.timeval = type { i64, i64 }
%"class.__gnu_cxx::__normal_iterator.71" = type { ptr }

@_ZL13g_state_index = internal global i32 0, align 4
@stderr = external global ptr, align 8
@.str.13 = private unnamed_addr constant [55 x i8] c"AsyncPrivateKeyDecrypt called with operation pending.\0A\00", align 1
@.str.14 = private unnamed_addr constant [56 x i8] c"AsyncPrivateKeyDecrypt called with incorrect key type.\0A\00", align 1

; Function Attrs: mustprogress nounwind uwtable
define linkonce_odr hidden noundef nonnull align 8 dereferenceable(8) ptr @_ZNSt10_Head_baseILm0EP11evp_pkey_stLb0EE7_M_headERKS2_(ptr noundef nonnull align 8 dereferenceable(8) %0) #4 comdat align 2 {
  %2 = alloca ptr, align 8
  store ptr %0, ptr %2, align 8, !tbaa !181
  %3 = load ptr, ptr %2, align 8, !tbaa !181
  %4 = getelementptr inbounds nuw %"struct.std::_Head_base.17", ptr %3, i32 0, i32 0
  ret ptr %4
}

; Function Attrs: mustprogress nounwind uwtable
define linkonce_odr hidden noundef nonnull align 8 dereferenceable(8) ptr @_ZNSt11_Tuple_implILm0EJP11evp_pkey_st14OpenSSLDeleterIS0_XadL_Z13EVP_PKEY_freeEEEEE7_M_headERKS4_(ptr noundef nonnull align 8 dereferenceable(8) %0) #4 comdat align 2 {
  %2 = alloca ptr, align 8
  store ptr %0, ptr %2, align 8, !tbaa !179
  %3 = load ptr, ptr %2, align 8, !tbaa !179
  %4 = call noundef nonnull align 8 dereferenceable(8) ptr @_ZNSt10_Head_baseILm0EP11evp_pkey_stLb0EE7_M_headERKS2_(ptr noundef nonnull align 8 dereferenceable(8) %3) #18
  ret ptr %4
}

; Function Attrs: mustprogress nounwind uwtable
define linkonce_odr hidden noundef nonnull align 8 dereferenceable(8) ptr @_ZSt12__get_helperILm0EP11evp_pkey_stJ14OpenSSLDeleterIS0_XadL_Z13EVP_PKEY_freeEEEEERKT0_RKSt11_Tuple_implIXT_EJS4_DpT1_EE(ptr noundef nonnull align 8 dereferenceable(8) %0) #4 comdat {
  %2 = alloca ptr, align 8
  store ptr %0, ptr %2, align 8, !tbaa !179
  %3 = load ptr, ptr %2, align 8, !tbaa !179
  %4 = call noundef nonnull align 8 dereferenceable(8) ptr @_ZNSt11_Tuple_implILm0EJP11evp_pkey_st14OpenSSLDeleterIS0_XadL_Z13EVP_PKEY_freeEEEEE7_M_headERKS4_(ptr noundef nonnull align 8 dereferenceable(8) %3) #18
  ret ptr %4
}

; Function Attrs: mustprogress nounwind uwtable
define linkonce_odr hidden noundef nonnull align 8 dereferenceable(8) ptr @_ZSt3getILm0EJP11evp_pkey_st14OpenSSLDeleterIS0_XadL_Z13EVP_PKEY_freeEEEEERKNSt13tuple_elementIXT_ESt5tupleIJDpT0_EEE4typeERKS8_(ptr noundef nonnull align 8 dereferenceable(8) %0) #4 comdat {
  %2 = alloca ptr, align 8
  store ptr %0, ptr %2, align 8, !tbaa !177
  %3 = load ptr, ptr %2, align 8, !tbaa !177
  %4 = call noundef nonnull align 8 dereferenceable(8) ptr @_ZSt12__get_helperILm0EP11evp_pkey_stJ14OpenSSLDeleterIS0_XadL_Z13EVP_PKEY_freeEEEEERKT0_RKSt11_Tuple_implIXT_EJS4_DpT1_EE(ptr noundef nonnull align 8 dereferenceable(8) %3) #18
  ret ptr %4
}

; Function Attrs: mustprogress nounwind uwtable
define linkonce_odr noundef nonnull align 8 dereferenceable(8) ptr @_ZNK9__gnu_cxx17__normal_iteratorIPKhSt6vectorIhSaIhEEE4baseEv(ptr noundef nonnull align 8 dereferenceable(8) %0) #4 comdat align 2 {
  %2 = alloca ptr, align 8
  store ptr %0, ptr %2, align 8, !tbaa !392
  %3 = load ptr, ptr %2, align 8
  %4 = getelementptr inbounds nuw %"class.__gnu_cxx::__normal_iterator.71", ptr %3, i32 0, i32 0
  ret ptr %4
}

; Function Attrs: mustprogress nounwind uwtable
define linkonce_odr void @_ZN9__gnu_cxx17__normal_iteratorIPKhSt6vectorIhSaIhEEEC2ERKS2_(ptr noundef nonnull align 8 dereferenceable(8) %0, ptr noundef nonnull align 8 dereferenceable(8) %1) unnamed_addr #4 comdat align 2 {
  %3 = alloca ptr, align 8
  %4 = alloca ptr, align 8
  store ptr %0, ptr %3, align 8, !tbaa !392
  store ptr %1, ptr %4, align 8, !tbaa !10
  %5 = load ptr, ptr %3, align 8
  %6 = getelementptr inbounds nuw %"class.__gnu_cxx::__normal_iterator.71", ptr %5, i32 0, i32 0
  %7 = load ptr, ptr %4, align 8, !tbaa !10
  %8 = load ptr, ptr %7, align 8, !tbaa !13
  store ptr %8, ptr %6, align 8, !tbaa !394
  ret void
}

; Function Attrs: mustprogress nounwind uwtable
define linkonce_odr noundef ptr @_ZNKSt6vectorIhSaIhEE11_M_data_ptrIhEEPT_S4_(ptr noundef nonnull align 8 dereferenceable(24) %0, ptr noundef %1) #4 comdat align 2 {
  %3 = alloca ptr, align 8
  %4 = alloca ptr, align 8
  store ptr %0, ptr %3, align 8, !tbaa !157
  store ptr %1, ptr %4, align 8, !tbaa !13
  %5 = load ptr, ptr %4, align 8, !tbaa !13
  ret ptr %5
}

; Function Attrs: mustprogress nounwind uwtable
define linkonce_odr hidden noundef ptr @_ZNKSt15__uniq_ptr_implI11evp_pkey_st14OpenSSLDeleterIS0_XadL_Z13EVP_PKEY_freeEEEE6_M_ptrEv(ptr noundef nonnull align 8 dereferenceable(8) %0) #4 comdat align 2 {
  %2 = alloca ptr, align 8
  store ptr %0, ptr %2, align 8, !tbaa !173
  %3 = load ptr, ptr %2, align 8
  %4 = getelementptr inbounds nuw %"class.std::__uniq_ptr_impl.12", ptr %3, i32 0, i32 0
  %5 = call noundef nonnull align 8 dereferenceable(8) ptr @_ZSt3getILm0EJP11evp_pkey_st14OpenSSLDeleterIS0_XadL_Z13EVP_PKEY_freeEEEEERKNSt13tuple_elementIXT_ESt5tupleIJDpT0_EEE4typeERKS8_(ptr noundef nonnull align 8 dereferenceable(8) %4) #18
  %6 = load ptr, ptr %5, align 8, !tbaa !165
  ret ptr %6
}

; Function Attrs: inlinehint mustprogress nounwind uwtable
define linkonce_odr noundef zeroext i1 @_ZN9__gnu_cxxeqIPKhSt6vectorIhSaIhEEEEbRKNS_17__normal_iteratorIT_T0_EESB_(ptr noundef nonnull align 8 dereferenceable(8) %0, ptr noundef nonnull align 8 dereferenceable(8) %1) #5 comdat {
  %3 = alloca ptr, align 8
  %4 = alloca ptr, align 8
  store ptr %0, ptr %3, align 8, !tbaa !392
  store ptr %1, ptr %4, align 8, !tbaa !392
  %5 = load ptr, ptr %3, align 8, !tbaa !392
  %6 = call noundef nonnull align 8 dereferenceable(8) ptr @_ZNK9__gnu_cxx17__normal_iteratorIPKhSt6vectorIhSaIhEEE4baseEv(ptr noundef nonnull align 8 dereferenceable(8) %5) #18
  %7 = load ptr, ptr %6, align 8, !tbaa !13
  %8 = load ptr, ptr %4, align 8, !tbaa !392
  %9 = call noundef nonnull align 8 dereferenceable(8) ptr @_ZNK9__gnu_cxx17__normal_iteratorIPKhSt6vectorIhSaIhEEE4baseEv(ptr noundef nonnull align 8 dereferenceable(8) %8) #18
  %10 = load ptr, ptr %9, align 8, !tbaa !13
  %11 = icmp eq ptr %7, %10
  ret i1 %11
}

; Function Attrs: mustprogress nounwind uwtable
define linkonce_odr ptr @_ZNKSt6vectorIhSaIhEE3endEv(ptr noundef nonnull align 8 dereferenceable(24) %0) #4 comdat align 2 {
  %2 = alloca %"class.__gnu_cxx::__normal_iterator.71", align 8
  %3 = alloca ptr, align 8
  store ptr %0, ptr %3, align 8, !tbaa !157
  %4 = load ptr, ptr %3, align 8
  %5 = getelementptr inbounds nuw %"struct.std::_Vector_base", ptr %4, i32 0, i32 0
  %6 = getelementptr inbounds nuw %"struct.std::_Vector_base<unsigned char, std::allocator<unsigned char>>::_Vector_impl_data", ptr %5, i32 0, i32 1
  call void @_ZN9__gnu_cxx17__normal_iteratorIPKhSt6vectorIhSaIhEEEC2ERKS2_(ptr noundef nonnull align 8 dereferenceable(8) %2, ptr noundef nonnull align 8 dereferenceable(8) %6) #18
  %7 = getelementptr inbounds nuw %"class.__gnu_cxx::__normal_iterator.71", ptr %2, i32 0, i32 0
  %8 = load ptr, ptr %7, align 8
  ret ptr %8
}

; Function Attrs: mustprogress nounwind uwtable
define linkonce_odr ptr @_ZNKSt6vectorIhSaIhEE5beginEv(ptr noundef nonnull align 8 dereferenceable(24) %0) #4 comdat align 2 {
  %2 = alloca %"class.__gnu_cxx::__normal_iterator.71", align 8
  %3 = alloca ptr, align 8
  store ptr %0, ptr %3, align 8, !tbaa !157
  %4 = load ptr, ptr %3, align 8
  %5 = getelementptr inbounds nuw %"struct.std::_Vector_base", ptr %4, i32 0, i32 0
  %6 = getelementptr inbounds nuw %"struct.std::_Vector_base<unsigned char, std::allocator<unsigned char>>::_Vector_impl_data", ptr %5, i32 0, i32 0
  call void @_ZN9__gnu_cxx17__normal_iteratorIPKhSt6vectorIhSaIhEEEC2ERKS2_(ptr noundef nonnull align 8 dereferenceable(8) %2, ptr noundef nonnull align 8 dereferenceable(8) %6) #18
  %7 = getelementptr inbounds nuw %"class.__gnu_cxx::__normal_iterator.71", ptr %2, i32 0, i32 0
  %8 = load ptr, ptr %7, align 8
  ret ptr %8
}

; Function Attrs: mustprogress nounwind uwtable
define linkonce_odr noundef ptr @_ZNSt6vectorIhSaIhEE4dataEv(ptr noundef nonnull align 8 dereferenceable(24) %0) #4 comdat align 2 {
  %2 = alloca ptr, align 8
  store ptr %0, ptr %2, align 8, !tbaa !157
  %3 = load ptr, ptr %2, align 8
  %4 = getelementptr inbounds nuw %"struct.std::_Vector_base", ptr %3, i32 0, i32 0
  %5 = getelementptr inbounds nuw %"struct.std::_Vector_base<unsigned char, std::allocator<unsigned char>>::_Vector_impl_data", ptr %4, i32 0, i32 0
  %6 = load ptr, ptr %5, align 8, !tbaa !159
  %7 = call noundef ptr @_ZNKSt6vectorIhSaIhEE11_M_data_ptrIhEEPT_S4_(ptr noundef nonnull align 8 dereferenceable(24) %3, ptr noundef %6) #18
  ret ptr %7
}

; Function Attrs: mustprogress nounwind uwtable
define linkonce_odr hidden noundef ptr @_ZNKSt10unique_ptrI11evp_pkey_st14OpenSSLDeleterIS0_XadL_Z13EVP_PKEY_freeEEEE3getEv(ptr noundef nonnull align 8 dereferenceable(8) %0) #4 comdat align 2 {
  %2 = alloca ptr, align 8
  store ptr %0, ptr %2, align 8, !tbaa !161
  %3 = load ptr, ptr %2, align 8
  %4 = getelementptr inbounds nuw %"class.std::unique_ptr.10", ptr %3, i32 0, i32 0
  %5 = call noundef ptr @_ZNKSt15__uniq_ptr_implI11evp_pkey_st14OpenSSLDeleterIS0_XadL_Z13EVP_PKEY_freeEEEE6_M_ptrEv(ptr noundef nonnull align 8 dereferenceable(8) %4) #18
  ret ptr %5
}

; Function Attrs: mustprogress nounwind uwtable
define linkonce_odr noundef zeroext i1 @_ZNKSt6vectorIhSaIhEE5emptyEv(ptr noundef nonnull align 8 dereferenceable(24) %0) #4 comdat align 2 {
  %2 = alloca ptr, align 8
  %3 = alloca %"class.__gnu_cxx::__normal_iterator.71", align 8
  %4 = alloca %"class.__gnu_cxx::__normal_iterator.71", align 8
  store ptr %0, ptr %2, align 8, !tbaa !157
  %5 = load ptr, ptr %2, align 8
  call void @llvm.lifetime.start.p0(i64 8, ptr %3) #18
  %6 = call ptr @_ZNKSt6vectorIhSaIhEE5beginEv(ptr noundef nonnull align 8 dereferenceable(24) %5) #18
  %7 = getelementptr inbounds nuw %"class.__gnu_cxx::__normal_iterator.71", ptr %3, i32 0, i32 0
  store ptr %6, ptr %7, align 8
  call void @llvm.lifetime.start.p0(i64 8, ptr %4) #18
  %8 = call ptr @_ZNKSt6vectorIhSaIhEE3endEv(ptr noundef nonnull align 8 dereferenceable(24) %5) #18
  %9 = getelementptr inbounds nuw %"class.__gnu_cxx::__normal_iterator.71", ptr %4, i32 0, i32 0
  store ptr %8, ptr %9, align 8
  %10 = call noundef zeroext i1 @_ZN9__gnu_cxxeqIPKhSt6vectorIhSaIhEEEEbRKNS_17__normal_iteratorIT_T0_EESB_(ptr noundef nonnull align 8 dereferenceable(8) %3, ptr noundef nonnull align 8 dereferenceable(8) %4) #18
  call void @llvm.lifetime.end.p0(i64 8, ptr %4) #18
  call void @llvm.lifetime.end.p0(i64 8, ptr %3) #18
  ret i1 %10
}

; Function Attrs: mustprogress uwtable
define internal noundef ptr @_ZL12GetTestStatePK6ssl_st(ptr noundef %0) #6 {
  %2 = alloca ptr, align 8
  store ptr %0, ptr %2, align 8, !tbaa !204
  %3 = load ptr, ptr %2, align 8, !tbaa !204
  %4 = load i32, ptr @_ZL13g_state_index, align 4, !tbaa !6
  %5 = call ptr @SSL_get_ex_data(ptr noundef %3, i32 noundef %4)
  ret ptr %5
}

; Function Attrs: mustprogress uwtable
define internal noundef i32 @_ZL22AsyncPrivateKeyDecryptP6ssl_stPhPmmPKhm(ptr noundef %0, ptr noundef %1, ptr noundef %2, i64 noundef %3, ptr noundef %4, i64 noundef %5) #6 {
  %7 = alloca i32, align 4
  %8 = alloca ptr, align 8
  %9 = alloca ptr, align 8
  %10 = alloca ptr, align 8
  %11 = alloca i64, align 8
  %12 = alloca ptr, align 8
  %13 = alloca i64, align 8
  %14 = alloca ptr, align 8
  %15 = alloca ptr, align 8
  %16 = alloca i32, align 4
  store ptr %0, ptr %8, align 8, !tbaa !204
  store ptr %1, ptr %9, align 8, !tbaa !13
  store ptr %2, ptr %10, align 8, !tbaa !225
  store i64 %3, ptr %11, align 8, !tbaa !28
  store ptr %4, ptr %12, align 8, !tbaa !13
  store i64 %5, ptr %13, align 8, !tbaa !28
  call void @llvm.lifetime.start.p0(i64 8, ptr %14) #18
  %17 = load ptr, ptr %8, align 8, !tbaa !204
  %18 = call noundef ptr @_ZL12GetTestStatePK6ssl_st(ptr noundef %17)
  store ptr %18, ptr %14, align 8, !tbaa !155
  %19 = load ptr, ptr %14, align 8, !tbaa !155
  %20 = getelementptr inbounds nuw %struct.TestState, ptr %19, i32 0, i32 12
  %21 = call noundef zeroext i1 @_ZNKSt6vectorIhSaIhEE5emptyEv(ptr noundef nonnull align 8 dereferenceable(24) %20) #18
  br i1 %21, label %25, label %22

22:                                               ; preds = %6
  %23 = load ptr, ptr @stderr, align 8, !tbaa !15
  %24 = call i32 (ptr, ptr, ...) @fprintf(ptr noundef %23, ptr noundef @.str.13) #18
  call void @abort() #21
  unreachable

25:                                               ; preds = %6
  call void @llvm.lifetime.start.p0(i64 8, ptr %15) #18
  %26 = load ptr, ptr %14, align 8, !tbaa !155
  %27 = getelementptr inbounds nuw %struct.TestState, ptr %26, i32 0, i32 11
  %28 = call noundef ptr @_ZNKSt10unique_ptrI11evp_pkey_st14OpenSSLDeleterIS0_XadL_Z13EVP_PKEY_freeEEEE3getEv(ptr noundef nonnull align 8 dereferenceable(8) %27) #18
  %29 = call ptr @EVP_PKEY_get0_RSA(ptr noundef %28)
  store ptr %29, ptr %15, align 8, !tbaa !384
  %30 = load ptr, ptr %15, align 8, !tbaa !384
  %31 = icmp eq ptr %30, null
  br i1 %31, label %32, label %35

32:                                               ; preds = %25
  %33 = load ptr, ptr @stderr, align 8, !tbaa !15
  %34 = call i32 (ptr, ptr, ...) @fprintf(ptr noundef %33, ptr noundef @.str.14) #18
  call void @abort() #21
  unreachable

35:                                               ; preds = %25
  %36 = load ptr, ptr %14, align 8, !tbaa !155
  %37 = getelementptr inbounds nuw %struct.TestState, ptr %36, i32 0, i32 12
  %38 = load ptr, ptr %15, align 8, !tbaa !384
  %39 = call i32 @RSA_size(ptr noundef %38)
  %40 = zext i32 %39 to i64
  call void @_ZNSt6vectorIhSaIhEE6resizeEm(ptr noundef nonnull align 8 dereferenceable(24) %37, i64 noundef %40)
  %41 = load ptr, ptr %15, align 8, !tbaa !384
  %42 = load ptr, ptr %10, align 8, !tbaa !225
  %43 = load ptr, ptr %14, align 8, !tbaa !155
  %44 = getelementptr inbounds nuw %struct.TestState, ptr %43, i32 0, i32 12
  %45 = call noundef ptr @_ZNSt6vectorIhSaIhEE4dataEv(ptr noundef nonnull align 8 dereferenceable(24) %44) #18
  %46 = load ptr, ptr %15, align 8, !tbaa !384
  %47 = call i32 @RSA_size(ptr noundef %46)
  %48 = zext i32 %47 to i64
  %49 = load ptr, ptr %12, align 8, !tbaa !13
  %50 = load i64, ptr %13, align 8, !tbaa !28
  %51 = call i32 @RSA_decrypt(ptr noundef %41, ptr noundef %42, ptr noundef %45, i64 noundef %48, ptr noundef %49, i64 noundef %50, i32 noundef 3)
  %52 = icmp ne i32 %51, 0
  br i1 %52, label %54, label %53

53:                                               ; preds = %35
  store i32 2, ptr %7, align 4
  store i32 1, ptr %16, align 4
  br label %59

54:                                               ; preds = %35
  %55 = load ptr, ptr %14, align 8, !tbaa !155
  %56 = getelementptr inbounds nuw %struct.TestState, ptr %55, i32 0, i32 12
  %57 = load ptr, ptr %10, align 8, !tbaa !225
  %58 = load i64, ptr %57, align 8, !tbaa !28
  call void @_ZNSt6vectorIhSaIhEE6resizeEm(ptr noundef nonnull align 8 dereferenceable(24) %56, i64 noundef %58)
  store i32 1, ptr %7, align 4
  store i32 1, ptr %16, align 4
  br label %59

59:                                               ; preds = %54, %53
  call void @llvm.lifetime.end.p0(i64 8, ptr %15) #18
  call void @llvm.lifetime.end.p0(i64 8, ptr %14) #18
  %60 = load i32, ptr %7, align 4
  ret i32 %60
}