; Function Attrs: mustprogress uwtable
define internal noundef range(i32 1, 3) i32 @_ZL22AsyncPrivateKeyDecryptP6ssl_stPhPmmPKhm(ptr noundef %0, ptr readnone captures(none) %1, ptr noundef %2, i64 %3, ptr noundef %4, i64 noundef %5) #10 {
  %7 = load i32, ptr @_ZL13g_state_index, align 4, !tbaa !6
  %8 = tail call noundef ptr @SSL_get_ex_data(ptr noundef %0, i32 noundef %7)
  %9 = getelementptr inbounds nuw i8, ptr %8, i64 88
  %10 = load ptr, ptr %9, align 8, !tbaa !32
  %11 = getelementptr inbounds nuw i8, ptr %8, i64 96
  %12 = load ptr, ptr %11, align 8, !tbaa !32
  %13 = icmp eq ptr %10, %12
  br i1 %13, label %17, label %14

14:                                               ; preds = %6
  %15 = load ptr, ptr @stderr, align 8, !tbaa !33
  %16 = tail call i64 @fwrite(ptr nonnull @.str.13, i64 54, i64 1, ptr %15) #32
  tail call void @abort() #30
  unreachable

17:                                               ; preds = %6
  %18 = getelementptr inbounds nuw i8, ptr %8, i64 80
  %19 = load ptr, ptr %18, align 8, !tbaa !97
  %20 = tail call ptr @EVP_PKEY_get0_RSA(ptr noundef %19)
  %21 = icmp eq ptr %20, null
  br i1 %21, label %22, label %25

22:                                               ; preds = %17
  %23 = load ptr, ptr @stderr, align 8, !tbaa !33
  %24 = tail call i64 @fwrite(ptr nonnull @.str.14, i64 55, i64 1, ptr %23) #32
  tail call void @abort() #30
  unreachable

25:                                               ; preds = %17
  %26 = tail call i32 @RSA_size(ptr noundef nonnull %20)
  %27 = zext i32 %26 to i64
  tail call void @_ZNSt6vectorIhSaIhEE6resizeEm(ptr noundef nonnull align 8 dereferenceable(24) %9, i64 noundef %27)
  %28 = load ptr, ptr %9, align 8, !tbaa !140
  %29 = tail call i32 @RSA_size(ptr noundef nonnull %20)
  %30 = zext i32 %29 to i64
  %31 = tail call i32 @RSA_decrypt(ptr noundef nonnull %20, ptr noundef %2, ptr noundef %28, i64 noundef %30, ptr noundef %4, i64 noundef %5, i32 noundef 3)
  %.not = icmp eq i32 %31, 0
  br i1 %.not, label %34, label %32

32:                                               ; preds = %25
  %33 = load i64, ptr %2, align 8, !tbaa !144
  tail call void @_ZNSt6vectorIhSaIhEE6resizeEm(ptr noundef nonnull align 8 dereferenceable(24) %9, i64 noundef %33)
  br label %34

34:                                               ; preds = %25, %32
  %.0 = phi i32 [ 1, %32 ], [ 2, %25 ]
  ret i32 %.0
}